target datalayout = "e-m:e-p270:32:32-p271:32:32-p272:64:64-i64:64-i128:128-f80:128-n8:16:32:64-S128"
target triple = "x86_64-pc-linux-gnu"

%"class.std::__shared_count" = type { ptr }
%"class.dropbox::oxygen::nn.42" = type { %"class.std::shared_ptr.43" }
%"class.std::shared_ptr.43" = type { %"class.std::__shared_ptr.44" }
%"class.std::__shared_ptr.44" = type { ptr, %"class.std::__shared_count" }
%"struct.std::_Vector_base.140" = type { %"struct.std::_Vector_base<dropbox::oxygen::nn<std::shared_ptr<osgeo::proj::operation::ParameterValue>>, std::allocator<dropbox::oxygen::nn<std::shared_ptr<osgeo::proj::operation::ParameterValue>>>>::_Vector_impl" }
%"struct.std::_Vector_base<dropbox::oxygen::nn<std::shared_ptr<osgeo::proj::operation::ParameterValue>>, std::allocator<dropbox::oxygen::nn<std::shared_ptr<osgeo::proj::operation::ParameterValue>>>>::_Vector_impl" = type { %"struct.std::_Vector_base<dropbox::oxygen::nn<std::shared_ptr<osgeo::proj::operation::ParameterValue>>, std::allocator<dropbox::oxygen::nn<std::shared_ptr<osgeo::proj::operation::ParameterValue>>>>::_Vector_impl_data" }
%"struct.std::_Vector_base<dropbox::oxygen::nn<std::shared_ptr<osgeo::proj::operation::ParameterValue>>, std::allocator<dropbox::oxygen::nn<std::shared_ptr<osgeo::proj::operation::ParameterValue>>>>::_Vector_impl_data" = type { ptr, ptr, ptr }
%"struct.osgeo::proj::operation::VectorOfValues" = type { %"class.std::vector.139" }
%"class.std::vector.139" = type { %"struct.std::_Vector_base.140" }

; Function Attrs: mustprogress uwtable
define hidden void @_ZN5osgeo4proj9operation10Conversion6createERKNS0_4util11PropertyMapEiRKSt6vectorIN7dropbox6oxygen2nnISt10shared_ptrINS1_14ParameterValueEEEESaISE_EE(ptr dead_on_unwind noalias writable sret(%"class.dropbox::oxygen::nn.42") align 8 %0, ptr noundef nonnull align 8 dereferenceable(8) %1, i32 noundef %2, ptr noundef nonnull align 8 dereferenceable(24) %3) #0 align 2 {
  %5 = alloca ptr, align 8
  %6 = alloca ptr, align 8
  %7 = alloca i32, align 4
  %8 = alloca ptr, align 8
  %9 = alloca ptr, align 8
  store ptr %0, ptr %5, align 8
  store ptr %1, ptr %6, align 8, !tbaa !57
  store i32 %2, ptr %7, align 4, !tbaa !87
  store ptr %3, ptr %8, align 8, !tbaa !74
  call void @llvm.lifetime.start.p0(i64 8, ptr %9) #24
  %10 = load i32, ptr %7, align 4, !tbaa !87
  %11 = call noundef ptr @_ZN5osgeo4proj9operation10getMappingEi(i32 noundef %10) #24
  store ptr %11, ptr %9, align 8, !tbaa !89
  %12 = load ptr, ptr %6, align 8, !tbaa !57
  %13 = load ptr, ptr %9, align 8, !tbaa !89
  %14 = load ptr, ptr %8, align 8, !tbaa !74
  call void @_ZN5osgeo4proj9operationL16createConversionERKNS0_4util11PropertyMapEPKNS1_13MethodMappingERKSt6vectorIN7dropbox6oxygen2nnISt10shared_ptrINS1_14ParameterValueEEEESaISG_EE(ptr dead_on_unwind writable sret(%"class.dropbox::oxygen::nn.42") align 8 %0, ptr noundef nonnull align 8 dereferenceable(8) %12, ptr noundef %13, ptr noundef nonnull align 8 dereferenceable(24) %14)
  call void @llvm.lifetime.end.p0(i64 8, ptr %9) #24
  ret void
}

; Function Attrs: mustprogress uwtable
define void @_ZN5osgeo4proj9operation10Conversion31createLambertConicConformal_2SPERKNS0_4util11PropertyMapERKNS0_6common5AngleESA_SA_SA_RKNS7_6LengthESD_(ptr dead_on_unwind noalias writable sret(%"class.dropbox::oxygen::nn.42") align 8 %0, ptr noundef nonnull align 8 dereferenceable(8) %1, ptr noundef nonnull align 8 dereferenceable(24) %2, ptr noundef nonnull align 8 dereferenceable(24) %3, ptr noundef nonnull align 8 dereferenceable(24) %4, ptr noundef nonnull align 8 dereferenceable(24) %5, ptr noundef nonnull align 8 dereferenceable(24) %6, ptr noundef nonnull align 8 dereferenceable(24) %7) #0 align 2 personality ptr @__gxx_personality_v0 {
  %9 = alloca ptr, align 8
  %10 = alloca ptr, align 8
  %11 = alloca ptr, align 8
  %12 = alloca ptr, align 8
  %13 = alloca ptr, align 8
  %14 = alloca ptr, align 8
  %15 = alloca ptr, align 8
  %16 = alloca ptr, align 8
  %17 = alloca %"struct.osgeo::proj::operation::VectorOfValues", align 8
  %18 = alloca ptr, align 8
  %19 = alloca i32, align 4
  store ptr %0, ptr %9, align 8
  store ptr %1, ptr %10, align 8, !tbaa !57
  store ptr %2, ptr %11, align 8, !tbaa !105
  store ptr %3, ptr %12, align 8, !tbaa !105
  store ptr %4, ptr %13, align 8, !tbaa !105
  store ptr %5, ptr %14, align 8, !tbaa !105
  store ptr %6, ptr %15, align 8, !tbaa !109
  store ptr %7, ptr %16, align 8, !tbaa !109
  %20 = load ptr, ptr %10, align 8, !tbaa !57
  call void @llvm.lifetime.start.p0(i64 24, ptr %17) #24
  %21 = load ptr, ptr %11, align 8, !tbaa !105
  %22 = load ptr, ptr %12, align 8, !tbaa !105
  %23 = load ptr, ptr %13, align 8, !tbaa !105
  %24 = load ptr, ptr %14, align 8, !tbaa !105
  %25 = load ptr, ptr %15, align 8, !tbaa !109
  %26 = load ptr, ptr %16, align 8, !tbaa !109
  call void @_ZN5osgeo4proj9operation12createParamsERKNS0_6common7MeasureES5_S5_S5_S5_S5_(ptr dead_on_unwind writable sret(%"struct.osgeo::proj::operation::VectorOfValues") align 8 %17, ptr noundef nonnull align 8 dereferenceable(24) %21, ptr noundef nonnull align 8 dereferenceable(24) %22, ptr noundef nonnull align 8 dereferenceable(24) %23, ptr noundef nonnull align 8 dereferenceable(24) %24, ptr noundef nonnull align 8 dereferenceable(24) %25, ptr noundef nonnull align 8 dereferenceable(24) %26)
  invoke void @_ZN5osgeo4proj9operation10Conversion6createERKNS0_4util11PropertyMapEiRKSt6vectorIN7dropbox6oxygen2nnISt10shared_ptrINS1_14ParameterValueEEEESaISE_EE(ptr dead_on_unwind writable sret(%"class.dropbox::oxygen::nn.42") align 8 %0, ptr noundef nonnull align 8 dereferenceable(8) %20, i32 noundef 9802, ptr noundef nonnull align 8 dereferenceable(24) %17)
          to label %27 unwind label %28

27:                                               ; preds = %8
  call void @_ZN5osgeo4proj9operation14VectorOfValuesD1Ev(ptr noundef nonnull align 8 dereferenceable(24) %17) #24
  call void @llvm.lifetime.end.p0(i64 24, ptr %17) #24
  ret void

28:                                               ; preds = %8
  %29 = landingpad { ptr, i32 }
          cleanup
  %30 = extractvalue { ptr, i32 } %29, 0
  store ptr %30, ptr %18, align 8
  %31 = extractvalue { ptr, i32 } %29, 1
  store i32 %31, ptr %19, align 4
  call void @_ZN5osgeo4proj9operation14VectorOfValuesD1Ev(ptr noundef nonnull align 8 dereferenceable(24) %17) #24
  call void @llvm.lifetime.end.p0(i64 24, ptr %17) #24
  br label %32

32:                                               ; preds = %28
  %33 = load ptr, ptr %18, align 8
  %34 = load i32, ptr %19, align 4
  %35 = insertvalue { ptr, i32 } poison, ptr %33, 0
  %36 = insertvalue { ptr, i32 } %35, i32 %34, 1
  resume { ptr, i32 } %36
}